target datalayout = "e-m:e-p270:32:32-p271:32:32-p272:64:64-i64:64-i128:128-f80:128-n8:16:32:64-S128"
target triple = "x86_64-unknown-linux-gnu"

%struct.MemoryRegion = type { %struct.Object, i8, i8, i8, i8, i8, i8, i8, i8, i8, i8, ptr, ptr, ptr, ptr, ptr, ptr, i32, i128, i64, ptr, i64, i8, i8, i8, i8, i8, ptr, i64, i32, %union.anon, %union.anon.0, %union.anon.1, ptr, i32, ptr, ptr, i8 }
%struct.Object = type { ptr, ptr, ptr, i32, ptr }
%union.anon = type { %struct.QTailQLink }
%struct.QTailQLink = type { ptr, ptr }
%union.anon.0 = type { %struct.QTailQLink }
%union.anon.1 = type { %struct.QTailQLink }
%struct.VFIOPCIDevice = type { %struct.PCIDevice, %struct.VFIODevice, %struct.VFIOINTx, i32, ptr, i64, i32, i64, ptr, i32, ptr, ptr, i32, i32, [6 x %struct.VFIOBAR], ptr, ptr, %struct.PCIHostDeviceAddress, %struct.QemuUUID, %struct.EventNotifier, %struct.EventNotifier, ptr, i32, i32, i32, i32, i32, i32, i32, i32, i32, i32, i32, i8, i8, i8, i8, i8, i8, i8, i8, i8, i8, i8, i8, i8, i8, i32, i8, i8, ptr, %struct.Notifier }
%struct.PCIDevice = type { %struct.DeviceState, i8, i8, ptr, ptr, ptr, ptr, ptr, i32, %struct.PCIReqIDCache, [64 x i8], [7 x %struct.PCIIORegion], %struct.AddressSpace, %struct.MemoryRegion, %struct.MemoryRegion, ptr, ptr, [3 x ptr], i8, i8, i32, i8, i32, ptr, ptr, ptr, ptr, ptr, ptr, %struct.MemoryRegion, %struct.MemoryRegion, %struct.MemoryRegion, ptr, i8, i32, i8, %struct.PCIExpressDevice, ptr, ptr, i32, i8, %struct.MemoryRegion, i32, ptr, ptr, ptr, ptr, ptr, i32 }
%struct.DeviceState = type { %struct.Object, ptr, ptr, i8, i8, i64, ptr, i32, i8, ptr, %struct.NamedGPIOListHead, %struct.NamedClockListHead, %struct.BusStateHead, i32, i32, i32, %struct.ResettableState, ptr, %struct.MemReentrancyGuard }
%struct.NamedGPIOListHead = type { ptr }
%struct.NamedClockListHead = type { ptr }
%struct.BusStateHead = type { ptr }
%struct.ResettableState = type { i32, i8, i8 }
%struct.MemReentrancyGuard = type { i8 }
%struct.PCIReqIDCache = type { ptr, i32 }
%struct.PCIIORegion = type { i64, i64, i8, ptr, ptr }
%struct.AddressSpace = type { %struct.rcu_head, ptr, ptr, ptr, i32, i32, ptr, %union.anon.4, %union.anon.5 }
%struct.rcu_head = type { ptr, ptr }
%union.anon.4 = type { %struct.QTailQLink }
%union.anon.5 = type { %struct.QTailQLink }
%struct.PCIExpressDevice = type { i8, i8, i8, i16, %struct.PCIEAERLog, i16, i16, i16, %struct.PCIESriovPF, %struct.PCIESriovVF }
%struct.PCIEAERLog = type { i16, i16, ptr }
%struct.PCIESriovPF = type { i16, [7 x i8], ptr, ptr }
%struct.PCIESriovVF = type { ptr, i16 }
%struct.VFIODevice = type { %struct.anon.6, %struct.anon.7, %struct.anon.8, ptr, ptr, ptr, ptr, ptr, i32, i32, i8, i8, i8, i8, i32, ptr, i32, i32, i32, ptr, ptr, i32, i8, i8 }
%struct.anon.6 = type { ptr, ptr }
%struct.anon.7 = type { ptr, ptr }
%struct.anon.8 = type { ptr, ptr }
%struct.VFIOINTx = type { i8, i8, i8, %struct.EventNotifier, %struct.EventNotifier, %struct.PCIINTxRoute, i32, ptr }
%struct.PCIINTxRoute = type { i32, i32 }
%struct.VFIOBAR = type { %struct.VFIORegion, ptr, i64, i8, i8, i8, %struct.anon.9 }
%struct.VFIORegion = type { ptr, i64, ptr, i64, i32, i32, ptr, i8 }
%struct.anon.9 = type { ptr }
%struct.PCIHostDeviceAddress = type { i32, i32, i32, i32 }
%struct.QemuUUID = type { %union.anon.10 }
%union.anon.10 = type { %struct.anon.11 }
%struct.anon.11 = type { i32, i16, i16, i8, i8, [6 x i8] }
%struct.EventNotifier = type { i32, i32, i8 }
%struct.Notifier = type { ptr, %struct.anon.12 }
%struct.anon.12 = type { ptr, ptr }

@.str.75 = private unnamed_addr constant [46 x i8] c"vfio: Unable to power on device, stuck in D%d\00", align 1

; Function Attrs: nounwind sspstrong uwtable
define internal void @vfio_pci_pre_reset(ptr noundef %vdev) #0 {
entry:
  %vdev.addr = alloca ptr, align 8
  %pdev = alloca ptr, align 8
  %cmd = alloca i16, align 2
  %pmcsr = alloca i16, align 2
  %state = alloca i8, align 1
  store ptr %vdev, ptr %vdev.addr, align 8
  %0 = load ptr, ptr %vdev.addr, align 8
  %pdev1 = getelementptr inbounds %struct.VFIOPCIDevice, ptr %0, i32 0, i32 0
  store ptr %pdev1, ptr %pdev, align 8
  %1 = load ptr, ptr %vdev.addr, align 8
  call void @vfio_disable_interrupts(ptr noundef %1)
  %2 = load ptr, ptr %vdev.addr, align 8
  %pm_cap = getelementptr inbounds %struct.VFIOPCIDevice, ptr %2, i32 0, i32 33
  %3 = load i8, ptr %pm_cap, align 4
  %tobool = icmp ne i8 %3, 0
  br i1 %tobool, label %if.then, label %if.end27

if.then:                                          ; preds = %entry
  %4 = load ptr, ptr %pdev, align 8
  %5 = load ptr, ptr %vdev.addr, align 8
  %pm_cap2 = getelementptr inbounds %struct.VFIOPCIDevice, ptr %5, i32 0, i32 33
  %6 = load i8, ptr %pm_cap2, align 4
  %conv = zext i8 %6 to i32
  %add = add i32 %conv, 4
  %call = call i32 @vfio_pci_read_config(ptr noundef %4, i32 noundef %add, i32 noundef 2)
  %conv3 = trunc i32 %call to i16
  store i16 %conv3, ptr %pmcsr, align 2
  %7 = load i16, ptr %pmcsr, align 2
  %conv4 = zext i16 %7 to i32
  %and = and i32 %conv4, 3
  %conv5 = trunc i32 %and to i8
  store i8 %conv5, ptr %state, align 1
  %8 = load i8, ptr %state, align 1
  %tobool6 = icmp ne i8 %8, 0
  br i1 %tobool6, label %if.then7, label %if.end26

if.then7:                                         ; preds = %if.then
  %9 = load i16, ptr %pmcsr, align 2
  %conv8 = zext i16 %9 to i32
  %and9 = and i32 %conv8, -4
  %conv10 = trunc i32 %and9 to i16
  store i16 %conv10, ptr %pmcsr, align 2
  %10 = load ptr, ptr %pdev, align 8
  %11 = load ptr, ptr %vdev.addr, align 8
  %pm_cap11 = getelementptr inbounds %struct.VFIOPCIDevice, ptr %11, i32 0, i32 33
  %12 = load i8, ptr %pm_cap11, align 4
  %conv12 = zext i8 %12 to i32
  %add13 = add i32 %conv12, 4
  %13 = load i16, ptr %pmcsr, align 2
  %conv14 = zext i16 %13 to i32
  call void @vfio_pci_write_config(ptr noundef %10, i32 noundef %add13, i32 noundef %conv14, i32 noundef 2)
  %14 = load ptr, ptr %pdev, align 8
  %15 = load ptr, ptr %vdev.addr, align 8
  %pm_cap15 = getelementptr inbounds %struct.VFIOPCIDevice, ptr %15, i32 0, i32 33
  %16 = load i8, ptr %pm_cap15, align 4
  %conv16 = zext i8 %16 to i32
  %add17 = add i32 %conv16, 4
  %call18 = call i32 @vfio_pci_read_config(ptr noundef %14, i32 noundef %add17, i32 noundef 2)
  %conv19 = trunc i32 %call18 to i16
  store i16 %conv19, ptr %pmcsr, align 2
  %17 = load i16, ptr %pmcsr, align 2
  %conv20 = zext i16 %17 to i32
  %and21 = and i32 %conv20, 3
  %conv22 = trunc i32 %and21 to i8
  store i8 %conv22, ptr %state, align 1
  %18 = load i8, ptr %state, align 1
  %tobool23 = icmp ne i8 %18, 0
  br i1 %tobool23, label %if.then24, label %if.end

if.then24:                                        ; preds = %if.then7
  %19 = load i8, ptr %state, align 1
  %conv25 = zext i8 %19 to i32
  call void (ptr, ...) @error_report(ptr noundef @.str.75, i32 noundef %conv25)
  br label %if.end

if.end:                                           ; preds = %if.then24, %if.then7
  br label %if.end26

if.end26:                                         ; preds = %if.end, %if.then
  br label %if.end27

if.end27:                                         ; preds = %if.end26, %entry
  %20 = load ptr, ptr %pdev, align 8
  %call28 = call i32 @vfio_pci_read_config(ptr noundef %20, i32 noundef 4, i32 noundef 2)
  %conv29 = trunc i32 %call28 to i16
  store i16 %conv29, ptr %cmd, align 2
  %21 = load i16, ptr %cmd, align 2
  %conv30 = zext i16 %21 to i32
  %and31 = and i32 %conv30, -1032
  %conv32 = trunc i32 %and31 to i16
  store i16 %conv32, ptr %cmd, align 2
  %22 = load ptr, ptr %pdev, align 8
  %23 = load i16, ptr %cmd, align 2
  %conv33 = zext i16 %23 to i32
  call void @vfio_pci_write_config(ptr noundef %22, i32 noundef 4, i32 noundef %conv33, i32 noundef 2)
  ret void
}