; Function Attrs: nounwind sspstrong uwtable
define internal fastcc void @vfio_pci_pre_reset(ptr noundef %vdev) unnamed_addr #0 {
entry:
  tail call fastcc void @vfio_disable_interrupts(ptr noundef %vdev)
  %pm_cap = getelementptr inbounds nuw i8, ptr %vdev, i64 3540
  %0 = load i8, ptr %pm_cap, align 4
  %tobool.not = icmp eq i8 %0, 0
  br i1 %tobool.not, label %if.end27, label %if.then

if.then:                                          ; preds = %entry
  %conv = zext i8 %0 to i32
  %add = add nuw nsw i32 %conv, 4
  %call = tail call i32 @vfio_pci_read_config(ptr noundef nonnull %vdev, i32 noundef %add, i32 noundef 2)
  %conv516 = and i32 %call, 3
  %tobool6.not = icmp eq i32 %conv516, 0
  br i1 %tobool6.not, label %if.end27, label %if.then7

if.then7:                                         ; preds = %if.then
  %conv10 = and i32 %call, 65532
  %1 = load i8, ptr %pm_cap, align 4
  %conv12 = zext i8 %1 to i32
  %add13 = add nuw nsw i32 %conv12, 4
  tail call void @vfio_pci_write_config(ptr noundef nonnull %vdev, i32 noundef %add13, i32 noundef %conv10, i32 noundef 2)
  %2 = load i8, ptr %pm_cap, align 4
  %conv16 = zext i8 %2 to i32
  %add17 = add nuw nsw i32 %conv16, 4
  %call18 = tail call i32 @vfio_pci_read_config(ptr noundef nonnull %vdev, i32 noundef %add17, i32 noundef 2)
  %conv2217 = and i32 %call18, 3
  %tobool23.not = icmp eq i32 %conv2217, 0
  br i1 %tobool23.not, label %if.end27, label %if.then24

if.then24:                                        ; preds = %if.then7
  tail call void (ptr, ...) @error_report(ptr noundef nonnull @.str.75, i32 noundef %conv2217) #23
  br label %if.end27

if.end27:                                         ; preds = %if.then, %if.then24, %if.then7, %entry
  %call28 = tail call i32 @vfio_pci_read_config(ptr noundef nonnull %vdev, i32 noundef 4, i32 noundef 2)
  %conv32 = and i32 %call28, 64504
  tail call void @vfio_pci_write_config(ptr noundef nonnull %vdev, i32 noundef 4, i32 noundef %conv32, i32 noundef 2)
  ret void
}